target datalayout = "e-m:e-p270:32:32-p271:32:32-p272:64:64-i64:64-i128:128-f80:128-n8:16:32:64-S128"
target triple = "x86_64-pc-linux-gnu"

%"class.std::basic_string_view" = type { i64, ptr }

@.str.35 = private unnamed_addr constant [33 x i8] c"grpc.internal.security_connector\00", align 1

; Function Attrs: noinline noreturn nounwind uwtable
define linkonce_odr hidden void @__clang_call_terminate(ptr noundef %0) #11 comdat {
  %2 = call ptr @__cxa_begin_catch(ptr %0) #3
  call void @_ZSt9terminatev() #27
  unreachable
}

; Function Attrs: mustprogress nounwind uwtable
define linkonce_odr noundef i64 @_ZNSt11char_traitsIcE6lengthEPKc(ptr noundef %0) #7 comdat align 2 {
  %2 = alloca ptr, align 8
  store ptr %0, ptr %2, align 8, !tbaa !18
  %3 = load ptr, ptr %2, align 8, !tbaa !18
  %4 = call i64 @strlen(ptr noundef %3) #3
  ret i64 %4
}

; Function Attrs: mustprogress nounwind uwtable
define linkonce_odr void @_ZNSt17basic_string_viewIcSt11char_traitsIcEEC2EPKc(ptr noundef nonnull align 8 dereferenceable(16) %0, ptr noundef nonnull %1) unnamed_addr #7 comdat align 2 personality ptr @__gxx_personality_v0 {
  %3 = alloca ptr, align 8
  %4 = alloca ptr, align 8
  store ptr %0, ptr %3, align 8, !tbaa !37
  store ptr %1, ptr %4, align 8, !tbaa !18
  %5 = load ptr, ptr %3, align 8
  %6 = getelementptr inbounds nuw %"class.std::basic_string_view", ptr %5, i32 0, i32 0
  %7 = load ptr, ptr %4, align 8, !tbaa !18
  %8 = invoke noundef i64 @_ZNSt11char_traitsIcE6lengthEPKc(ptr noundef %7)
          to label %9 unwind label %12

9:                                                ; preds = %2
  store i64 %8, ptr %6, align 8, !tbaa !39
  %10 = getelementptr inbounds nuw %"class.std::basic_string_view", ptr %5, i32 0, i32 1
  %11 = load ptr, ptr %4, align 8, !tbaa !18
  store ptr %11, ptr %10, align 8, !tbaa !41
  ret void

12:                                               ; preds = %2
  %13 = landingpad { ptr, i32 }
          catch ptr null
  %14 = extractvalue { ptr, i32 } %13, 0
  call void @__clang_call_terminate(ptr %14) #27
  unreachable
}

; Function Attrs: mustprogress nounwind uwtable
define linkonce_odr { i64, ptr } @_ZN23grpc_security_connector14ChannelArgNameEv() #7 comdat align 2 {
  %1 = alloca %"class.std::basic_string_view", align 8
  call void @_ZNSt17basic_string_viewIcSt11char_traitsIcEEC2EPKc(ptr noundef nonnull align 8 dereferenceable(16) %1, ptr noundef @.str.35) #3
  %2 = load { i64, ptr }, ptr %1, align 8
  ret { i64, ptr } %2
}

; Function Attrs: mustprogress nounwind uwtable
define linkonce_odr noundef ptr @_ZN9grpc_core13GetObjectImplI31grpc_channel_security_connectorvE3GetEPS1_(ptr noundef %0) #7 comdat align 2 {
  %2 = alloca ptr, align 8
  store ptr %0, ptr %2, align 8, !tbaa !712
  %3 = load ptr, ptr %2, align 8, !tbaa !712
  ret ptr %3
}

; Function Attrs: mustprogress uwtable
define linkonce_odr noundef ptr @_ZNK9grpc_core11ChannelArgs10GetPointerI31grpc_channel_security_connectorEENS_13GetObjectImplIT_vE10StoredTypeESt17basic_string_viewIcSt11char_traitsIcEE(ptr noundef nonnull align 8 dereferenceable(8) %0, i64 %1, ptr %2) #4 comdat align 2 {
  %4 = alloca %"class.std::basic_string_view", align 8
  %5 = alloca ptr, align 8
  %6 = alloca %"class.std::basic_string_view", align 8
  %7 = getelementptr inbounds nuw { i64, ptr }, ptr %4, i32 0, i32 0
  store i64 %1, ptr %7, align 8
  %8 = getelementptr inbounds nuw { i64, ptr }, ptr %4, i32 0, i32 1
  store ptr %2, ptr %8, align 8
  store ptr %0, ptr %5, align 8, !tbaa !10
  %9 = load ptr, ptr %5, align 8
  call void @llvm.memcpy.p0.p0.i64(ptr align 8 %6, ptr align 8 %4, i64 16, i1 false), !tbaa.struct !23
  %10 = getelementptr inbounds nuw { i64, ptr }, ptr %6, i32 0, i32 0
  %11 = load i64, ptr %10, align 8
  %12 = getelementptr inbounds nuw { i64, ptr }, ptr %6, i32 0, i32 1
  %13 = load ptr, ptr %12, align 8
  %14 = call noundef ptr @_ZNK9grpc_core11ChannelArgs14GetVoidPointerESt17basic_string_viewIcSt11char_traitsIcEE(ptr noundef nonnull align 8 dereferenceable(8) %9, i64 %11, ptr %13)
  ret ptr %14
}

; Function Attrs: mustprogress uwtable
define linkonce_odr { i64, ptr } @_ZN9grpc_core20ChannelArgNameTraitsI31grpc_channel_security_connectorE14ChannelArgNameEv() #4 comdat align 2 {
  %1 = alloca %"class.std::basic_string_view", align 8
  %2 = call { i64, ptr } @_ZN23grpc_security_connector14ChannelArgNameEv()
  %3 = getelementptr inbounds nuw { i64, ptr }, ptr %1, i32 0, i32 0
  %4 = extractvalue { i64, ptr } %2, 0
  store i64 %4, ptr %3, align 8
  %5 = getelementptr inbounds nuw { i64, ptr }, ptr %1, i32 0, i32 1
  %6 = extractvalue { i64, ptr } %2, 1
  store ptr %6, ptr %5, align 8
  %7 = load { i64, ptr }, ptr %1, align 8
  ret { i64, ptr } %7
}

; Function Attrs: mustprogress uwtable
define linkonce_odr noundef ptr @_ZNK9grpc_core11ChannelArgs9GetObjectI31grpc_channel_security_connectorEENS_13GetObjectImplIT_vE6ResultEv(ptr noundef nonnull align 8 dereferenceable(8) %0) #4 comdat align 2 {
  %2 = alloca ptr, align 8
  %3 = alloca %"class.std::basic_string_view", align 8
  store ptr %0, ptr %2, align 8, !tbaa !10
  %4 = load ptr, ptr %2, align 8
  %5 = call { i64, ptr } @_ZN9grpc_core20ChannelArgNameTraitsI31grpc_channel_security_connectorE14ChannelArgNameEv()
  %6 = getelementptr inbounds nuw { i64, ptr }, ptr %3, i32 0, i32 0
  %7 = extractvalue { i64, ptr } %5, 0
  store i64 %7, ptr %6, align 8
  %8 = getelementptr inbounds nuw { i64, ptr }, ptr %3, i32 0, i32 1
  %9 = extractvalue { i64, ptr } %5, 1
  store ptr %9, ptr %8, align 8
  %10 = getelementptr inbounds nuw { i64, ptr }, ptr %3, i32 0, i32 0
  %11 = load i64, ptr %10, align 8
  %12 = getelementptr inbounds nuw { i64, ptr }, ptr %3, i32 0, i32 1
  %13 = load ptr, ptr %12, align 8
  %14 = call noundef ptr @_ZNK9grpc_core11ChannelArgs10GetPointerI31grpc_channel_security_connectorEENS_13GetObjectImplIT_vE10StoredTypeESt17basic_string_viewIcSt11char_traitsIcEE(ptr noundef nonnull align 8 dereferenceable(8) %4, i64 %11, ptr %13)
  %15 = call noundef ptr @_ZN9grpc_core13GetObjectImplI31grpc_channel_security_connectorvE3GetEPS1_(ptr noundef %14)
  ret ptr %15
}

; Function Attrs: mustprogress uwtable
define internal void @_ZN9grpc_core12_GLOBAL__N_131ClientSecurityHandshakerFactory14AddHandshakersERKNS_11ChannelArgsEP16grpc_pollset_setPNS_16HandshakeManagerE(ptr noundef nonnull align 8 dereferenceable(8) %0, ptr noundef nonnull align 8 dereferenceable(8) %1, ptr noundef %2, ptr noundef %3) unnamed_addr #4 align 2 {
  %5 = alloca ptr, align 8
  %6 = alloca ptr, align 8
  %7 = alloca ptr, align 8
  %8 = alloca ptr, align 8
  %9 = alloca ptr, align 8
  store ptr %0, ptr %5, align 8, !tbaa !64
  store ptr %1, ptr %6, align 8, !tbaa !10
  store ptr %2, ptr %7, align 8, !tbaa !708
  store ptr %3, ptr %8, align 8, !tbaa !710
  call void @llvm.lifetime.start.p0(i64 8, ptr %9) #3
  %10 = load ptr, ptr %6, align 8, !tbaa !10
  %11 = call noundef ptr @_ZNK9grpc_core11ChannelArgs9GetObjectI31grpc_channel_security_connectorEENS_13GetObjectImplIT_vE6ResultEv(ptr noundef nonnull align 8 dereferenceable(8) %10)
  store ptr %11, ptr %9, align 8, !tbaa !712
  %12 = load ptr, ptr %9, align 8, !tbaa !712
  %13 = icmp ne ptr %12, null
  br i1 %13, label %14, label %22

14:                                               ; preds = %4
  %15 = load ptr, ptr %9, align 8, !tbaa !712
  %16 = load ptr, ptr %6, align 8, !tbaa !10
  %17 = load ptr, ptr %7, align 8, !tbaa !708
  %18 = load ptr, ptr %8, align 8, !tbaa !710
  %19 = load ptr, ptr %15, align 8, !tbaa !107
  %20 = getelementptr inbounds ptr, ptr %19, i64 7
  %21 = load ptr, ptr %20, align 8
  call void %21(ptr noundef nonnull align 8 dereferenceable(56) %15, ptr noundef nonnull align 8 dereferenceable(8) %16, ptr noundef %17, ptr noundef %18)
  br label %22

22:                                               ; preds = %14, %4
  call void @llvm.lifetime.end.p0(i64 8, ptr %9) #3
  ret void
}